; Function Attrs: mustprogress uwtable
define hidden noundef nonnull align 8 dereferenceable(264) ptr @_ZN19OpenColorIO_v2_4dev14FormatRegistry11GetInstanceEv() local_unnamed_addr #3 align 2 personality ptr @__gxx_personality_v0 {
entry:
  %call1.i.i.i = tail call noundef i32 @pthread_mutex_lock(ptr noundef nonnull @_ZN19OpenColorIO_v2_4dev12_GLOBAL__N_120g_formatRegistryLockE) #28
  %tobool.not.i.i = icmp eq i32 %call1.i.i.i, 0
  br i1 %tobool.not.i.i, label %_ZNSt10lock_guardISt5mutexEC2ERS0_.exit, label %if.then.i.i

if.then.i.i:                                      ; preds = %entry
  tail call void @_ZSt20__throw_system_errori(i32 noundef %call1.i.i.i) #29
  unreachable

_ZNSt10lock_guardISt5mutexEC2ERS0_.exit:          ; preds = %entry
  %0 = load ptr, ptr @_ZN19OpenColorIO_v2_4dev12_GLOBAL__N_116g_formatRegistryE, align 8
  %tobool.not = icmp eq ptr %0, null
  br i1 %tobool.not, label %if.then, label %if.end

if.then:                                          ; preds = %_ZNSt10lock_guardISt5mutexEC2ERS0_.exit
  %call = invoke noalias noundef nonnull dereferenceable(264) ptr @_Znwm(i64 noundef 264) #27
          to label %invoke.cont unwind label %lpad

invoke.cont:                                      ; preds = %if.then
  invoke void @_ZN19OpenColorIO_v2_4dev14FormatRegistryC2Ev(ptr noundef nonnull align 8 dereferenceable(264) %call)
          to label %invoke.cont2 unwind label %lpad1

invoke.cont2:                                     ; preds = %invoke.cont
  store ptr %call, ptr @_ZN19OpenColorIO_v2_4dev12_GLOBAL__N_116g_formatRegistryE, align 8
  br label %if.end

lpad:                                             ; preds = %if.then
  %1 = landingpad { ptr, i32 }
          cleanup
  br label %ehcleanup

lpad1:                                            ; preds = %invoke.cont
  %2 = landingpad { ptr, i32 }
          cleanup
  tail call void @_ZdlPv(ptr noundef nonnull %call) #31
  br label %ehcleanup

if.end:                                           ; preds = %invoke.cont2, %_ZNSt10lock_guardISt5mutexEC2ERS0_.exit
  %3 = phi ptr [ %call, %invoke.cont2 ], [ %0, %_ZNSt10lock_guardISt5mutexEC2ERS0_.exit ]
  %call1.i.i.i2 = tail call noundef i32 @pthread_mutex_unlock(ptr noundef nonnull @_ZN19OpenColorIO_v2_4dev12_GLOBAL__N_120g_formatRegistryLockE) #28
  ret ptr %3

ehcleanup:                                        ; preds = %lpad1, %lpad
  %.pn = phi { ptr, i32 } [ %2, %lpad1 ], [ %1, %lpad ]
  %call1.i.i.i3 = tail call noundef i32 @pthread_mutex_unlock(ptr noundef nonnull @_ZN19OpenColorIO_v2_4dev12_GLOBAL__N_120g_formatRegistryLockE) #28
  resume { ptr, i32 } %.pn
}